target datalayout = "e-m:e-p270:32:32-p271:32:32-p272:64:64-i64:64-i128:128-f80:128-n8:16:32:64-S128"
target triple = "x86_64-unknown-linux-gnu"

%struct.__jmp_buf_tag = type { [8 x i64], i32, %struct.__sigset_t }
%struct.__sigset_t = type { [16 x i64] }
%struct.__va_list_tag = type { i32, i32, ptr, ptr }

@expr_env = internal global [1 x %struct.__jmp_buf_tag] zeroinitializer, align 16
@.str.54 = private unnamed_addr constant [2 x i8] c"\0A\00", align 1

; Function Attrs: noreturn nounwind sspstrong uwtable
define internal void @expr_error(ptr noundef %mon, ptr noundef %fmt, ...) #10 {
entry:
  %mon.addr = alloca ptr, align 8
  %fmt.addr = alloca ptr, align 8
  %ap = alloca [1 x %struct.__va_list_tag], align 16
  store ptr %mon, ptr %mon.addr, align 8
  store ptr %fmt, ptr %fmt.addr, align 8
  %arraydecay = getelementptr inbounds [1 x %struct.__va_list_tag], ptr %ap, i64 0, i64 0
  call void @llvm.va_start(ptr %arraydecay)
  %0 = load ptr, ptr %mon.addr, align 8
  %1 = load ptr, ptr %fmt.addr, align 8
  %arraydecay1 = getelementptr inbounds [1 x %struct.__va_list_tag], ptr %ap, i64 0, i64 0
  %call = call i32 @monitor_vprintf(ptr noundef %0, ptr noundef %1, ptr noundef %arraydecay1)
  %2 = load ptr, ptr %mon.addr, align 8
  %call2 = call i32 (ptr, ptr, ...) @monitor_printf(ptr noundef %2, ptr noundef @.str.54)
  %arraydecay3 = getelementptr inbounds [1 x %struct.__va_list_tag], ptr %ap, i64 0, i64 0
  call void @llvm.va_end(ptr %arraydecay3)
  call void @siglongjmp(ptr noundef @expr_env, i32 noundef 1) #15
  unreachable
}