; Function Attrs: noreturn nounwind sspstrong uwtable
define internal void @expr_error(ptr noundef %mon, ptr noundef %fmt, ...) unnamed_addr #11 {
entry:
  %ap = alloca [1 x %struct.__va_list_tag], align 16
  call void @llvm.va_start.p0(ptr nonnull %ap)
  %call = call i32 @monitor_vprintf(ptr noundef %mon, ptr noundef %fmt, ptr noundef nonnull %ap) #19
  %call2 = call i32 (ptr, ptr, ...) @monitor_printf(ptr noundef %mon, ptr noundef nonnull @.str.54) #19
  call void @llvm.va_end.p0(ptr nonnull %ap)
  call void @siglongjmp(ptr noundef nonnull @expr_env, i32 noundef 1) #22
  unreachable
}